((lp0
(S'../data/actions/0/00000002.jpg'
p1
I0
tp2
a(S'../data/actions/0/00000003.jpg'
p3
I0
tp4
a(S'../data/actions/0/00000010.jpg'
p5
I0
tp6
a(S'../data/actions/0/00000011.jpg'
p7
I0
tp8
a(S'../data/actions/0/00000018.jpg'
p9
I0
tp10
a(S'../data/actions/0/00000019.jpg'
p11
I0
tp12
a(S'../data/actions/0/00000026.jpg'
p13
I0
tp14
a(S'../data/actions/0/00000027.jpg'
p15
I0
tp16
a(S'../data/actions/0/00000034.jpg'
p17
I0
tp18
a(S'../data/actions/0/00000035.jpg'
p19
I0
tp20
a(S'../data/actions/0/00000042.jpg'
p21
I0
tp22
a(S'../data/actions/0/00000043.jpg'
p23
I0
tp24
a(S'../data/actions/0/00000050.jpg'
p25
I0
tp26
a(S'../data/actions/0/00000051.jpg'
p27
I0
tp28
a(S'../data/actions/0/00000058.jpg'
p29
I0
tp30
a(S'../data/actions/0/00000059.jpg'
p31
I0
tp32
a(S'../data/actions/0/00000066.jpg'
p33
I0
tp34
a(S'../data/actions/0/00000067.jpg'
p35
I0
tp36
a(S'../data/actions/1/00000000.jpg'
p37
I1
tp38
a(S'../data/actions/1/00000001.jpg'
p39
I1
tp40
a(S'../data/actions/1/00000008.jpg'
p41
I1
tp42
a(S'../data/actions/1/00000009.jpg'
p43
I1
tp44
a(S'../data/actions/1/00000016.jpg'
p45
I1
tp46
a(S'../data/actions/1/00000017.jpg'
p47
I1
tp48
a(S'../data/actions/1/00000024.jpg'
p49
I1
tp50
a(S'../data/actions/1/00000025.jpg'
p51
I1
tp52
a(S'../data/actions/1/00000032.jpg'
p53
I1
tp54
a(S'../data/actions/1/00000033.jpg'
p55
I1
tp56
a(S'../data/actions/1/00000040.jpg'
p57
I1
tp58
a(S'../data/actions/1/00000041.jpg'
p59
I1
tp60
a(S'../data/actions/1/00000048.jpg'
p61
I1
tp62
a(S'../data/actions/1/00000049.jpg'
p63
I1
tp64
a(S'../data/actions/1/00000056.jpg'
p65
I1
tp66
a(S'../data/actions/1/00000057.jpg'
p67
I1
tp68
a(S'../data/actions/1/00000064.jpg'
p69
I1
tp70
a(S'../data/actions/1/00000065.jpg'
p71
I1
tp72
a(S'../data/actions/3/00000004.jpg'
p73
I2
tp74
a(S'../data/actions/3/00000005.jpg'
p75
I2
tp76
a(S'../data/actions/3/00000012.jpg'
p77
I2
tp78
a(S'../data/actions/3/00000013.jpg'
p79
I2
tp80
a(S'../data/actions/3/00000020.jpg'
p81
I2
tp82
a(S'../data/actions/3/00000021.jpg'
p83
I2
tp84
a(S'../data/actions/3/00000028.jpg'
p85
I2
tp86
a(S'../data/actions/3/00000029.jpg'
p87
I2
tp88
a(S'../data/actions/3/00000036.jpg'
p89
I2
tp90
a(S'../data/actions/3/00000037.jpg'
p91
I2
tp92
a(S'../data/actions/3/00000044.jpg'
p93
I2
tp94
a(S'../data/actions/3/00000045.jpg'
p95
I2
tp96
a(S'../data/actions/3/00000052.jpg'
p97
I2
tp98
a(S'../data/actions/3/00000053.jpg'
p99
I2
tp100
a(S'../data/actions/3/00000060.jpg'
p101
I2
tp102
a(S'../data/actions/3/00000061.jpg'
p103
I2
tp104
a(S'../data/actions/3/00000068.jpg'
p105
I2
tp106
a(S'../data/actions/3/00000069.jpg'
p107
I2
tp108
a(S'../data/actions/4/00000006.jpg'
p109
I3
tp110
a(S'../data/actions/4/00000007.jpg'
p111
I3
tp112
a(S'../data/actions/4/00000014.jpg'
p113
I3
tp114
a(S'../data/actions/4/00000015.jpg'
p115
I3
tp116
a(S'../data/actions/4/00000022.jpg'
p117
I3
tp118
a(S'../data/actions/4/00000023.jpg'
p119
I3
tp120
a(S'../data/actions/4/00000030.jpg'
p121
I3
tp122
a(S'../data/actions/4/00000031.jpg'
p123
I3
tp124
a(S'../data/actions/4/00000038.jpg'
p125
I3
tp126
a(S'../data/actions/4/00000039.jpg'
p127
I3
tp128
a(S'../data/actions/4/00000046.jpg'
p129
I3
tp130
a(S'../data/actions/4/00000047.jpg'
p131
I3
tp132
a(S'../data/actions/4/00000054.jpg'
p133
I3
tp134
a(S'../data/actions/4/00000055.jpg'
p135
I3
tp136
a(S'../data/actions/4/00000062.jpg'
p137
I3
tp138
a(S'../data/actions/4/00000063.jpg'
p139
I3
tp140
a(S'../data/actions/4/00000070.jpg'
p141
I3
tp142
a(S'../data/actions/4/00000071.jpg'
p143
I3
tp144
a(lp145
I61
aI61
aI60
aI60
aI54
aI54
aI53
aI53
aI103
aI103
aI55
aI55
aI125
aI125
aI60
aI60
aI82
aI82
aI59
aI59
aI62
aI62
aI57
aI57
aI79
aI79
aI114
aI114
aI67
aI67
aI54
aI54
aI51
aI51
aI81
aI81
aI103
aI103
aI105
aI105
aI56
aI56
aI146
aI146
aI70
aI70
aI54
aI54
aI51
aI51
aI55
aI55
aI89
aI89
aI61
aI61
aI61
aI61
aI63
aI63
aI64
aI64
aI93
aI93
aI65
aI65
aI63
aI63
aI85
aI85
aI84
aI84
atp146
.